target datalayout = "e-m:e-p270:32:32-p271:32:32-p272:64:64-i64:64-i128:128-f80:128-n8:16:32:64-S128"
target triple = "x86_64-pc-linux-gnu"

%struct.autoload_const = type { %struct.ccan_list_node, i64, i64, i64, i64, i32, i64, i32 }
%struct.ccan_list_node = type { ptr, ptr }

@.str.53 = private unnamed_addr constant [19 x i8] c"../variable.c:2507\00", align 1

; Function Attrs: inlinehint nounwind sspstrong uwtable
define internal void @ccan_list_del_(ptr noundef %0, ptr noundef %1) #6 {
  %3 = alloca ptr, align 8
  %4 = alloca ptr, align 8
  store ptr %0, ptr %3, align 8, !tbaa !240
  store ptr %1, ptr %4, align 8, !tbaa !16
  %5 = load ptr, ptr %3, align 8, !tbaa !240
  %6 = getelementptr inbounds nuw %struct.ccan_list_node, ptr %5, i32 0, i32 1
  %7 = load ptr, ptr %6, align 8, !tbaa !245
  %8 = load ptr, ptr %3, align 8, !tbaa !240
  %9 = getelementptr inbounds nuw %struct.ccan_list_node, ptr %8, i32 0, i32 0
  %10 = load ptr, ptr %9, align 8, !tbaa !243
  %11 = getelementptr inbounds nuw %struct.ccan_list_node, ptr %10, i32 0, i32 1
  store ptr %7, ptr %11, align 8, !tbaa !245
  %12 = load ptr, ptr %3, align 8, !tbaa !240
  %13 = getelementptr inbounds nuw %struct.ccan_list_node, ptr %12, i32 0, i32 0
  %14 = load ptr, ptr %13, align 8, !tbaa !243
  %15 = load ptr, ptr %3, align 8, !tbaa !240
  %16 = getelementptr inbounds nuw %struct.ccan_list_node, ptr %15, i32 0, i32 1
  %17 = load ptr, ptr %16, align 8, !tbaa !245
  %18 = getelementptr inbounds nuw %struct.ccan_list_node, ptr %17, i32 0, i32 0
  store ptr %14, ptr %18, align 8, !tbaa !243
  ret void
}

; Function Attrs: nounwind sspstrong uwtable
define internal void @autoload_const_free(ptr noundef %0) #0 {
  %2 = alloca ptr, align 8
  %3 = alloca ptr, align 8
  store ptr %0, ptr %2, align 8, !tbaa !40
  call void @llvm.lifetime.start.p0(i64 8, ptr %3) #30
  %4 = load ptr, ptr %2, align 8, !tbaa !40
  store ptr %4, ptr %3, align 8, !tbaa !142
  %5 = load ptr, ptr %3, align 8, !tbaa !142
  %6 = getelementptr inbounds nuw %struct.autoload_const, ptr %5, i32 0, i32 0
  call void @ccan_list_del_(ptr noundef %6, ptr noundef @.str.53)
  %7 = load ptr, ptr %2, align 8, !tbaa !40
  call void @ruby_xfree(ptr noundef %7)
  call void @llvm.lifetime.end.p0(i64 8, ptr %3) #30
  ret void
}