; Function Attrs: nounwind sspstrong uwtable
define internal void @autoload_const_free(ptr noundef %0) #0 {
  %2 = getelementptr inbounds nuw i8, ptr %0, i64 8
  %3 = load ptr, ptr %2, align 8, !tbaa !161
  %4 = load ptr, ptr %0, align 8, !tbaa !160
  %5 = getelementptr inbounds nuw i8, ptr %4, i64 8
  store ptr %3, ptr %5, align 8, !tbaa !161
  store ptr %4, ptr %3, align 8, !tbaa !160
  tail call void @ruby_xfree(ptr noundef nonnull %0) #27
  ret void
}